(dp0
S'OriginalConfig'
p1
ccopy_reg
_reconstructor
p2
(cWMCore.Configuration
Configuration
p3
c__builtin__
object
p4
Ntp5
Rp6
(dp7
S'Site'
p8
g2
(cWMCore.Configuration
ConfigSection
p9
g4
Ntp10
Rp11
(dp12
S'_internal_skipChecks'
p13
I00
sS'_internal_documentation'
p14
S''
p15
sS'_internal_settings'
p16
c__builtin__
set
p17
((lp18
S'whitelist'
p19
aS'storageSite'
p20
atp21
Rp22
sS'_internal_name'
p23
g8
sS'_internal_docstrings'
p24
(dp25
sS'_internal_children'
p26
g17
((lp27
tp28
Rp29
sg20
S'T3_CH_CERNBOX'
p30
sS'_internal_parent_ref'
p31
Nsg19
(lp32
S'T2_US_MIT'
p33
aS'T2_US_Wisconsin'
p34
aS'T2_US_Purdue'
p35
aS'T2_US_UCSD'
p36
aS'T2_US_Caltech'
p37
aS'T2_US_Nebraska'
p38
asbsS'Data'
p39
g2
(g9
g4
Ntp40
Rp41
(dp42
S'inputDataset'
p43
S'/DoubleMuon/Run2018A-UL2018_MiniAODv2_NanoAODv9-v1/NANOAOD'
p44
sS'allowNonValidInputDataset'
p45
I01
sg13
I00
sS'splitting'
p46
S'LumiBased'
p47
sS'unitsPerJob'
p48
I50
sg14
g15
sg16
g17
((lp49
g43
ag45
aS'publication'
p50
ag48
aS'ignoreLocality'
p51
ag46
aS'inputDBS'
p52
aS'lumiMask'
p53
aS'outputDatasetTag'
p54
atp55
Rp56
sg51
I01
sg23
g39
sg52
S'global'
p57
sg24
(dp58
sg54
S'DoubleMuon_Run2018A_mva'
p59
sg26
g17
((lp60
tp61
Rp62
sg31
Nsg53
S'/afs/cern.ch/cms/CAF/CMSCOMM/COMM_DQM/certification/Collisions18/13TeV/Legacy_2018/Cert_314472-325175_13TeV_Legacy2018_Collisions18_JSON.txt'
p63
sg50
I00
sbsS'_internal_sections'
p64
(lp65
S'General'
p66
aS'JobType'
p67
ag39
ag8
asg67
g2
(g9
g4
Ntp68
Rp69
(dp70
S'inputFiles'
p71
(lp72
S'../../../../scripts/haddnano.py'
p73
aS'../WWG_fakelepton/WWG_postproc.py'
p74
aS'../WWG_fakelepton/WWGfakelepton_Module.py'
p75
aS'../WWG_fakelepton/WWG_keep_and_drop.txt'
p76
aS'../WWG_fakelepton/WWG_output_branch.txt'
p77
aS'../WWG_fakelepton/DAS_filesearch.py'
p78
asg13
I00
sS'scriptArgs'
p79
(lp80
S'isdata=data'
p81
aS'year=2018'
p82
aS'era=A'
p83
asg14
g15
sg16
g17
((lp84
g71
ag79
aS'scriptExe'
p85
aS'pluginName'
p86
aS'sendPythonFolder'
p87
aS'allowUndistributedCMSSW'
p88
aS'psetName'
p89
aS'maxJobRuntimeMin'
p90
atp91
Rp92
sg23
g67
sg85
S'./WWG_crab_script.sh'
p93
sg24
(dp94
sg87
I01
sg86
S'Analysis'
p95
sg26
g17
((lp96
tp97
Rp98
sg88
I01
sg89
S'PSet.py'
p99
sg31
Nsg90
I2630
sbsg66
g2
(g9
g4
Ntp100
Rp101
(dp102
S'workArea'
p103
S'crab2018'
p104
sg13
I00
sg14
g15
sg16
g17
((lp105
g103
aS'transferLogs'
p106
aS'requestName'
p107
atp108
Rp109
sg23
g66
sg24
(dp110
sg26
g17
((lp111
tp112
Rp113
sg107
g59
sg31
Nsg106
I00
sbsbsS'voGroup'
p114
g15
sS'Server'
p115
S'cmsweb.cern.ch'
p116
sS'instance'
p117
S'prod'
p118
sS'RequestName'
p119
V220325_081519:yian_crab_DoubleMuon_Run2018A_mva
p120
sS'voRole'
p121
S'NULL'
p122
sS'Port'
p123
g15
s.