(dp0
S'OriginalConfig'
p1
ccopy_reg
_reconstructor
p2
(cWMCore.Configuration
Configuration
p3
c__builtin__
object
p4
Ntp5
Rp6
(dp7
S'Site'
p8
g2
(cWMCore.Configuration
ConfigSection
p9
g4
Ntp10
Rp11
(dp12
S'_internal_skipChecks'
p13
I00
sS'_internal_documentation'
p14
S''
p15
sS'_internal_settings'
p16
c__builtin__
set
p17
((lp18
S'storageSite'
p19
atp20
Rp21
sS'_internal_name'
p22
g8
sS'_internal_docstrings'
p23
(dp24
sS'_internal_children'
p25
g17
((lp26
tp27
Rp28
sg19
S'T3_CH_CERNBOX'
p29
sS'_internal_parent_ref'
p30
NsbsS'Data'
p31
g2
(g9
g4
Ntp32
Rp33
(dp34
S'inputDataset'
p35
S'/SingleElectron/Run2016E-HIPM_UL2016_MiniAODv2_NanoAODv9-v2/NANOAOD'
p36
sS'allowNonValidInputDataset'
p37
I01
sg13
I00
sS'splitting'
p38
S'LumiBased'
p39
sS'unitsPerJob'
p40
I40
sg14
g15
sg16
g17
((lp41
g35
ag37
aS'publication'
p42
ag40
ag38
aS'inputDBS'
p43
aS'lumiMask'
p44
aS'outputDatasetTag'
p45
atp46
Rp47
sg22
g31
sg43
S'global'
p48
sg23
(dp49
sg45
S'SingleElectron_Run2016E_mva'
p50
sg25
g17
((lp51
tp52
Rp53
sg30
Nsg44
S'/afs/cern.ch/cms/CAF/CMSCOMM/COMM_DQM/certification/Collisions16/13TeV/Legacy_2016/Cert_271036-284044_13TeV_Legacy2016_Collisions16_JSON.txt'
p54
sg42
I00
sbsS'_internal_sections'
p55
(lp56
S'General'
p57
aS'JobType'
p58
ag31
ag8
asg58
g2
(g9
g4
Ntp59
Rp60
(dp61
g13
I00
sS'scriptArgs'
p62
(lp63
S'isdata=data'
p64
aS'year=2016pre'
p65
aS'era=E'
p66
asg14
g15
sg16
g17
((lp67
g62
aS'scriptExe'
p68
aS'pluginName'
p69
aS'sendPythonFolder'
p70
aS'allowUndistributedCMSSW'
p71
aS'psetName'
p72
aS'inputFiles'
p73
atp74
Rp75
sg22
g58
sg68
S'./WWG_crab_script.sh'
p76
sg23
(dp77
sg70
I01
sg69
S'Analysis'
p78
sg25
g17
((lp79
tp80
Rp81
sg71
I01
sg72
S'PSet.py'
p82
sg30
Nsg73
(lp83
S'../../../../scripts/haddnano.py'
p84
aS'../WWG_selector/WWG_postproc.py'
p85
aS'../WWG_selector/WWG_Module.py'
p86
aS'../WWG_selector/WWG_keep_and_drop.txt'
p87
aS'../WWG_selector/WWG_output_branch.txt'
p88
aS'../WWG_selector/DAS_filesearch.py'
p89
asbsg57
g2
(g9
g4
Ntp90
Rp91
(dp92
S'workArea'
p93
S'crab2016pre'
p94
sg13
I00
sg14
g15
sg16
g17
((lp95
g93
aS'transferLogs'
p96
aS'requestName'
p97
atp98
Rp99
sg22
g57
sg23
(dp100
sg25
g17
((lp101
tp102
Rp103
sg97
g50
sg30
Nsg96
I00
sbsbsS'voGroup'
p104
g15
sS'Server'
p105
S'cmsweb.cern.ch'
p106
sS'instance'
p107
S'prod'
p108
sS'RequestName'
p109
V220412_024346:yian_crab_SingleElectron_Run2016E_mva
p110
sS'voRole'
p111
S'NULL'
p112
sS'Port'
p113
g15
s.