(dp0
S'OriginalConfig'
p1
ccopy_reg
_reconstructor
p2
(cWMCore.Configuration
Configuration
p3
c__builtin__
object
p4
Ntp5
Rp6
(dp7
S'Site'
p8
g2
(cWMCore.Configuration
ConfigSection
p9
g4
Ntp10
Rp11
(dp12
S'_internal_skipChecks'
p13
I00
sS'_internal_documentation'
p14
S''
p15
sS'_internal_settings'
p16
c__builtin__
set
p17
((lp18
S'storageSite'
p19
atp20
Rp21
sS'_internal_name'
p22
g8
sS'_internal_docstrings'
p23
(dp24
sS'_internal_children'
p25
g17
((lp26
tp27
Rp28
sg19
S'T3_CH_CERNBOX'
p29
sS'_internal_parent_ref'
p30
NsbsS'Data'
p31
g2
(g9
g4
Ntp32
Rp33
(dp34
S'inputDataset'
p35
S'/ST_tW_antitop_5f_NoFullyHadronicDecays_TuneCP5_13TeV-powheg-pythia8/RunIISummer20UL16NanoAODAPVv9-106X_mcRun2_asymptotic_preVFP_v11-v1/NANOAODSIM'
p36
sS'allowNonValidInputDataset'
p37
I01
sg13
I00
sS'splitting'
p38
S'FileBased'
p39
sS'unitsPerJob'
p40
I1
sg14
g15
sg16
g17
((lp41
g35
ag37
aS'publication'
p42
ag40
aS'inputDBS'
p43
ag38
aS'outputDatasetTag'
p44
atp45
Rp46
sg22
g31
sg43
S'global'
p47
sg23
(dp48
sg44
S'ST_tW_antitop_5f_NoFullyHadronicDecays_TuneCP5_13TeV-powheg-pythia8_2016pre_mva'
p49
sg25
g17
((lp50
tp51
Rp52
sg30
Nsg42
I00
sbsS'_internal_sections'
p53
(lp54
S'General'
p55
aS'JobType'
p56
ag31
ag8
asg56
g2
(g9
g4
Ntp57
Rp58
(dp59
g13
I00
sS'scriptArgs'
p60
(lp61
S'isdata=MC'
p62
aS'year=2016pre'
p63
aS'era=B'
p64
asg14
g15
sg16
g17
((lp65
g60
aS'scriptExe'
p66
aS'pluginName'
p67
aS'sendPythonFolder'
p68
aS'allowUndistributedCMSSW'
p69
aS'psetName'
p70
aS'inputFiles'
p71
atp72
Rp73
sg22
g56
sg66
S'./WWG_crab_script.sh'
p74
sg23
(dp75
sg68
I01
sg67
S'Analysis'
p76
sg25
g17
((lp77
tp78
Rp79
sg69
I01
sg70
S'PSet.py'
p80
sg30
Nsg71
(lp81
S'../../../../scripts/haddnano.py'
p82
aS'../WWG_selector/WWG_postproc.py'
p83
aS'../WWG_selector/WWG_Module.py'
p84
aS'../WWG_selector/WWG_keep_and_drop.txt'
p85
aS'../WWG_selector/WWG_output_branch.txt'
p86
aS'../WWG_selector/DAS_filesearch.py'
p87
asbsg55
g2
(g9
g4
Ntp88
Rp89
(dp90
S'workArea'
p91
S'crab2016pre'
p92
sg13
I00
sg14
g15
sg16
g17
((lp93
g91
aS'transferLogs'
p94
aS'requestName'
p95
atp96
Rp97
sg22
g55
sg23
(dp98
sg25
g17
((lp99
tp100
Rp101
sg95
g49
sg30
Nsg94
I00
sbsbsS'voGroup'
p102
g15
sS'Server'
p103
S'cmsweb.cern.ch'
p104
sS'instance'
p105
S'prod'
p106
sS'RequestName'
p107
V220412_023935:yian_crab_ST_tW_antitop_5f_NoFullyHadronicDecays_TuneCP5_13TeV-powheg-pythia8_2016pre_mva
p108
sS'voRole'
p109
S'NULL'
p110
sS'Port'
p111
g15
s.