(dp0
S'OriginalConfig'
p1
ccopy_reg
_reconstructor
p2
(cWMCore.Configuration
Configuration
p3
c__builtin__
object
p4
Ntp5
Rp6
(dp7
S'Site'
p8
g2
(cWMCore.Configuration
ConfigSection
p9
g4
Ntp10
Rp11
(dp12
S'_internal_skipChecks'
p13
I00
sS'_internal_documentation'
p14
S''
p15
sS'_internal_settings'
p16
c__builtin__
set
p17
((lp18
S'whitelist'
p19
aS'storageSite'
p20
atp21
Rp22
sS'_internal_name'
p23
g8
sS'_internal_docstrings'
p24
(dp25
sS'_internal_children'
p26
g17
((lp27
tp28
Rp29
sg20
S'T3_CH_CERNBOX'
p30
sS'_internal_parent_ref'
p31
Nsg19
(lp32
S'T2_US_MIT'
p33
aS'T2_US_Wisconsin'
p34
aS'T2_US_Purdue'
p35
aS'T2_US_UCSD'
p36
aS'T2_US_Caltech'
p37
aS'T2_US_Nebraska'
p38
asbsS'Data'
p39
g2
(g9
g4
Ntp40
Rp41
(dp42
S'inputDataset'
p43
S'/DYJetsToLL_M-50_TuneCP5_13TeV-amcatnloFXFX-pythia8/RunIISummer20UL18NanoAODv9-106X_upgrade2018_realistic_v16_L1v1-v2/NANOAODSIM'
p44
sS'allowNonValidInputDataset'
p45
I01
sg13
I00
sS'splitting'
p46
S'FileBased'
p47
sS'unitsPerJob'
p48
I1
sg14
g15
sg16
g17
((lp49
g43
ag45
aS'publication'
p50
ag48
aS'ignoreLocality'
p51
aS'inputDBS'
p52
ag46
aS'outputDatasetTag'
p53
atp54
Rp55
sg51
I01
sg23
g39
sg52
S'global'
p56
sg24
(dp57
sg53
S'DYJetsToLL_M-50_TuneCP5_13TeV-amcatnloFXFX-pythia8_2018_mva'
p58
sg26
g17
((lp59
tp60
Rp61
sg31
Nsg50
I00
sbsS'_internal_sections'
p62
(lp63
S'General'
p64
aS'JobType'
p65
ag39
ag8
asg65
g2
(g9
g4
Ntp66
Rp67
(dp68
S'inputFiles'
p69
(lp70
S'../../../../scripts/haddnano.py'
p71
aS'../WWG_fakelepton/WWG_postproc.py'
p72
aS'../WWG_fakelepton/WWGfakelepton_Module.py'
p73
aS'../WWG_fakelepton/WWG_keep_and_drop.txt'
p74
aS'../WWG_fakelepton/WWG_output_branch.txt'
p75
aS'../WWG_fakelepton/DAS_filesearch.py'
p76
asg13
I00
sS'scriptArgs'
p77
(lp78
S'isdata=MC'
p79
aS'year=2018'
p80
aS'era=A'
p81
asg14
g15
sg16
g17
((lp82
g69
ag77
aS'scriptExe'
p83
aS'pluginName'
p84
aS'sendPythonFolder'
p85
aS'allowUndistributedCMSSW'
p86
aS'psetName'
p87
aS'maxJobRuntimeMin'
p88
atp89
Rp90
sg23
g65
sg83
S'./WWG_crab_script.sh'
p91
sg24
(dp92
sg85
I01
sg84
S'Analysis'
p93
sg26
g17
((lp94
tp95
Rp96
sg86
I01
sg87
S'PSet.py'
p97
sg31
Nsg88
I2630
sbsg64
g2
(g9
g4
Ntp98
Rp99
(dp100
S'workArea'
p101
S'crab2018'
p102
sg13
I00
sg14
g15
sg16
g17
((lp103
g101
aS'transferLogs'
p104
aS'requestName'
p105
atp106
Rp107
sg23
g64
sg24
(dp108
sg26
g17
((lp109
tp110
Rp111
sg105
g58
sg31
Nsg104
I00
sbsbsS'voGroup'
p112
g15
sS'Server'
p113
S'cmsweb.cern.ch'
p114
sS'instance'
p115
S'prod'
p116
sS'RequestName'
p117
V220325_081418:yian_crab_DYJetsToLL_M-50_TuneCP5_13TeV-amcatnloFXFX-pythia8_2018_mva
p118
sS'voRole'
p119
S'NULL'
p120
sS'Port'
p121
g15
s.